Certificate:
    Data:
        Version: 3 (0x2)
        Serial Number: 1 (0x1)
    Signature Algorithm: sha256WithRSAEncryption
        Issuer: C=CH, ST=Vaud, L=Yverdon, O=Bacula, CN=localhost/emailAddress=root@localhost
        Validity
            Not Before: Jul 16 12:30:30 2018 GMT
            Not After : Jul 16 14:30:30 2028 GMT
        Subject: C=CH, ST=Vaud, O=Bacula, CN=localhost/emailAddress=root@localhost
        Subject Public Key Info:
            Public Key Algorithm: rsaEncryption
                Public-Key: (4096 bit)
                Modulus:
                    00:9e:50:85:91:2f:b7:d5:10:93:05:71:24:50:d0:
                    98:5c:a6:83:41:6d:62:61:d2:a3:fa:a3:69:f0:06:
                    5d:f6:62:0f:26:3e:52:d9:d6:0f:97:9c:f8:be:2e:
                    82:36:5f:81:d9:32:ad:d2:ce:b2:2d:77:80:5b:58:
                    65:29:cf:34:03:b2:02:82:7b:1a:ae:af:0c:5b:32:
                    48:d1:85:ff:48:7e:fd:a5:65:7f:eb:3b:a9:4f:27:
                    ad:5f:14:d1:f1:7e:23:1d:e7:17:de:ee:73:0d:2f:
                    d8:06:de:39:98:f1:2f:6e:6f:e1:6f:d2:69:85:37:
                    f8:2e:7b:e8:d9:bf:39:4a:65:61:82:6e:c3:a4:5e:
                    60:ad:d3:3f:11:cf:95:05:63:3c:79:7c:b4:e6:d9:
                    50:b4:c5:56:4b:cc:f4:a5:63:3c:e2:1a:72:94:3f:
                    7c:1a:bf:0d:2c:ac:3e:73:ad:2f:f9:de:8e:0f:6f:
                    c9:b7:b9:82:8c:4a:e4:df:82:ec:55:ae:0a:3f:5f:
                    a8:1c:ce:ad:81:45:59:8c:7e:db:e3:5a:da:f8:72:
                    89:9b:f9:d7:fc:31:6a:57:e8:1f:8c:2d:fe:80:d8:
                    75:18:52:59:ea:63:5c:4f:cf:9d:b7:27:e1:51:67:
                    d3:69:87:c8:61:a7:0f:5f:d3:f6:8b:b7:56:5f:a9:
                    c8:1e:c6:3e:fe:1e:17:72:ca:fc:27:2b:f1:8c:3d:
                    50:f7:5f:91:94:02:94:db:a4:9f:f6:b6:84:e8:b5:
                    f1:7d:a8:a0:e0:de:99:87:c6:32:91:18:11:1c:25:
                    68:3e:25:48:e9:43:76:04:af:22:6c:fa:d8:09:30:
                    49:2b:fb:85:a6:cf:50:15:39:44:de:4f:a2:99:6b:
                    fd:45:1b:47:e6:3f:e2:b8:fb:fa:23:54:a0:f3:a0:
                    e0:1f:fe:21:4f:d9:eb:75:19:f2:4f:1c:6e:20:be:
                    98:0e:d1:d7:16:c6:41:78:c7:9c:52:47:4b:9a:e0:
                    28:98:a5:37:43:79:71:aa:93:a4:27:7f:6a:9a:a4:
                    4b:46:4b:b7:45:f6:99:9d:ab:52:bb:9c:08:c7:44:
                    9e:6e:5a:40:49:bf:a5:c2:22:f6:b6:2f:ed:51:f8:
                    fe:50:c5:c1:a6:90:aa:54:e7:23:46:7d:45:53:c0:
                    83:e3:ad:d2:58:10:5d:63:02:96:44:c9:a7:b3:2e:
                    06:d5:c4:ba:cc:ba:04:ad:7a:5b:c4:80:4a:5b:ac:
                    fc:30:2c:2b:6e:11:f0:03:f4:6c:c7:6b:fb:17:21:
                    2a:9e:ac:a6:90:1c:d6:59:53:66:c3:75:8e:3a:f6:
                    47:0d:0e:9c:54:ba:ac:7f:05:52:82:90:58:f4:66:
                    03:0a:7b
                Exponent: 65537 (0x10001)
        X509v3 extensions:
            X509v3 Basic Constraints: 
                CA:FALSE
            Netscape Comment: 
                OpenSSL Generated Certificate
            X509v3 Subject Key Identifier: 
                D9:54:16:31:4A:23:14:38:91:80:33:DE:B2:87:35:22:FB:AA:F8:A7
            X509v3 Authority Key Identifier: 
                keyid:B2:D1:4A:2C:39:23:08:F3:92:E7:96:B9:44:0F:92:FD:57:15:99:0C

    Signature Algorithm: sha256WithRSAEncryption
         a5:d6:eb:6d:57:a6:f4:8e:2a:6b:32:b2:7a:dd:92:40:02:e4:
         b3:c1:6c:52:eb:a8:b5:20:4d:de:f5:c7:f6:2a:09:5e:49:31:
         dc:74:9b:c8:e1:ec:04:c6:08:a1:6b:60:a7:5f:dd:09:77:76:
         d4:f8:1b:f9:81:07:ae:22:70:6d:bd:20:b3:c2:be:57:5d:f2:
         95:ab:02:f3:c3:bc:41:94:ea:6b:23:2c:b1:3d:a4:3f:7c:15:
         70:68:0d:fc:11:03:3d:80:c1:a0:83:15:23:d4:f1:3d:08:8e:
         f4:d9:9f:0a:25:ff:ec:10:9e:cd:d0:97:85:58:05:39:e2:2b:
         dc:7b:ec:6f:2f:dc:da:05:bd:81:74:a5:5a:ea:74:ac:be:9d:
         2b:ef:dd:b5:2b:27:39:fd:c3:7d:97:82:ab:4c:e2:4f:80:a4:
         75:17:22:36:0d:40:3c:cf:a1:62:83:ae:04:e6:16:3e:dd:04:
         46:63:6b:f7:3f:85:61:e9:d4:8f:df:17:61:da:36:30:1b:76:
         54:3d:f3:77:09:9a:b7:be:9a:59:32:18:5e:3b:27:d4:37:8f:
         31:4d:b8:4b:b2:5e:c0:63:39:13:97:05:ad:e2:4a:45:32:49:
         a1:01:01:32:f7:65:0f:28:99:bf:4b:52:69:0c:b4:13:8d:8c:
         b5:e3:f1:35:de:1e:36:6a:3b:12:d0:a6:e3:9a:ad:97:01:0a:
         f8:b0:c3:af:d8:4e:85:70:54:9d:38:e9:cc:80:32:9f:ec:ed:
         9d:ce:a2:14:a8:fa:f3:3a:c5:15:6e:dc:74:64:41:f4:c9:a7:
         04:89:26:97:a8:ec:b3:b9:f5:0c:36:93:67:d8:db:7c:9e:ba:
         23:e4:2d:27:c3:78:14:8d:10:89:35:90:90:72:da:0a:66:32:
         e5:6a:ef:c4:2b:8c:8f:ee:43:03:8a:19:4c:c7:77:b4:cd:05:
         28:bf:50:ea:dd:e1:c1:76:77:b6:96:bd:42:c5:b5:7f:66:cd:
         ed:3e:f1:74:ae:1c:1f:47:3d:8c:37:57:31:27:c6:88:9d:62:
         c7:75:96:b3:e7:0a:f6:e9:f4:9d:24:c6:33:1f:5d:d1:db:85:
         b5:6d:17:3b:9f:85:b9:98:77:f5:96:ee:91:68:13:ce:31:8b:
         89:39:61:6f:b4:af:a1:55:48:4e:da:20:29:15:3d:20:e4:01:
         ce:93:f0:e3:0d:ce:9d:73:ef:7a:40:bd:31:e9:d2:b5:09:4d:
         9e:ba:e9:ff:1f:d7:b6:58:21:0f:da:41:03:2d:a4:e0:16:37:
         97:dd:62:72:f6:46:56:d5:8b:37:8b:07:89:5d:48:d4:02:27:
         17:59:b9:a9:f4:ec:27:29
-----BEGIN CERTIFICATE-----
MIIFyjCCA7KgAwIBAgIBATANBgkqhkiG9w0BAQsFADByMQswCQYDVQQGEwJDSDEN
MAsGA1UECAwEVmF1ZDEQMA4GA1UEBwwHWXZlcmRvbjEPMA0GA1UECgwGQmFjdWxh
MRIwEAYDVQQDDAlsb2NhbGhvc3QxHTAbBgkqhkiG9w0BCQEWDnJvb3RAbG9jYWxo
b3N0MCAXDTE4MDcxNjEyMzAzMFoYDzIwMjgwNzE2MTQzMDMwWjBgMQswCQYDVQQG
EwJDSDENMAsGA1UECAwEVmF1ZDEPMA0GA1UECgwGQmFjdWxhMRIwEAYDVQQDDAls
b2NhbGhvc3QxHTAbBgkqhkiG9w0BCQEWDnJvb3RAbG9jYWxob3N0MIICIjANBgkq
hkiG9w0BAQEFAAOCAg8AMIICCgKCAgEAnlCFkS+31RCTBXEkUNCYXKaDQW1iYdKj
+qNp8AZd9mIPJj5S2dYPl5z4vi6CNl+B2TKt0s6yLXeAW1hlKc80A7ICgnsarq8M
WzJI0YX/SH79pWV/6zupTyetXxTR8X4jHecX3u5zDS/YBt45mPEvbm/hb9JphTf4
Lnvo2b85SmVhgm7DpF5grdM/Ec+VBWM8eXy05tlQtMVWS8z0pWM84hpylD98Gr8N
LKw+c60v+d6OD2/Jt7mCjErk34LsVa4KP1+oHM6tgUVZjH7b41ra+HKJm/nX/DFq
V+gfjC3+gNh1GFJZ6mNcT8+dtyfhUWfTaYfIYacPX9P2i7dWX6nIHsY+/h4Xcsr8
JyvxjD1Q91+RlAKU26Sf9raE6LXxfaig4N6Zh8YykRgRHCVoPiVI6UN2BK8ibPrY
CTBJK/uFps9QFTlE3k+imWv9RRtH5j/iuPv6I1Sg86DgH/4hT9nrdRnyTxxuIL6Y
DtHXFsZBeMecUkdLmuAomKU3Q3lxqpOkJ39qmqRLRku3RfaZnatSu5wIx0SeblpA
Sb+lwiL2ti/tUfj+UMXBppCqVOcjRn1FU8CD463SWBBdYwKWRMmnsy4G1cS6zLoE
rXpbxIBKW6z8MCwrbhHwA/Rsx2v7FyEqnqymkBzWWVNmw3WOOvZHDQ6cVLqsfwVS
gpBY9GYDCnsCAwEAAaN7MHkwCQYDVR0TBAIwADAsBglghkgBhvhCAQ0EHxYdT3Bl
blNTTCBHZW5lcmF0ZWQgQ2VydGlmaWNhdGUwHQYDVR0OBBYEFNlUFjFKIxQ4kYAz
3rKHNSL7qvinMB8GA1UdIwQYMBaAFLLRSiw5IwjzkueWuUQPkv1XFZkMMA0GCSqG
SIb3DQEBCwUAA4ICAQCl1uttV6b0jiprMrJ63ZJAAuSzwWxS66i1IE3e9cf2Kgle
STHcdJvI4ewExgiha2CnX90Jd3bU+Bv5gQeuInBtvSCzwr5XXfKVqwLzw7xBlOpr
IyyxPaQ/fBVwaA38EQM9gMGggxUj1PE9CI702Z8KJf/sEJ7N0JeFWAU54ivce+xv
L9zaBb2BdKVa6nSsvp0r7921Kyc5/cN9l4KrTOJPgKR1FyI2DUA8z6Fig64E5hY+
3QRGY2v3P4Vh6dSP3xdh2jYwG3ZUPfN3CZq3vppZMhheOyfUN48xTbhLsl7AYzkT
lwWt4kpFMkmhAQEy92UPKJm/S1JpDLQTjYy14/E13h42ajsS0Kbjmq2XAQr4sMOv
2E6FcFSdOOnMgDKf7O2dzqIUqPrzOsUVbtx0ZEH0yacEiSaXqOyzufUMNpNn2Nt8
nroj5C0nw3gUjRCJNZCQctoKZjLlau/EK4yP7kMDihlMx3e0zQUov1Dq3eHBdne2
lr1CxbV/Zs3tPvF0rhwfRz2MN1cxJ8aInWLHdZaz5wr26fSdJMYzH13R24W1bRc7
n4W5mHf1lu6RaBPOMYuJOWFvtK+hVUhO2iApFT0g5AHOk/DjDc6dc+96QL0x6dK1
CU2euun/H9e2WCEP2kEDLaTgFjeX3WJy9kZW1Ys3iweJXUjUAicXWbmp9OwnKQ==
-----END CERTIFICATE-----
-----BEGIN RSA PRIVATE KEY-----
MIIJKAIBAAKCAgEAnlCFkS+31RCTBXEkUNCYXKaDQW1iYdKj+qNp8AZd9mIPJj5S
2dYPl5z4vi6CNl+B2TKt0s6yLXeAW1hlKc80A7ICgnsarq8MWzJI0YX/SH79pWV/
6zupTyetXxTR8X4jHecX3u5zDS/YBt45mPEvbm/hb9JphTf4Lnvo2b85SmVhgm7D
pF5grdM/Ec+VBWM8eXy05tlQtMVWS8z0pWM84hpylD98Gr8NLKw+c60v+d6OD2/J
t7mCjErk34LsVa4KP1+oHM6tgUVZjH7b41ra+HKJm/nX/DFqV+gfjC3+gNh1GFJZ
6mNcT8+dtyfhUWfTaYfIYacPX9P2i7dWX6nIHsY+/h4Xcsr8JyvxjD1Q91+RlAKU
26Sf9raE6LXxfaig4N6Zh8YykRgRHCVoPiVI6UN2BK8ibPrYCTBJK/uFps9QFTlE
3k+imWv9RRtH5j/iuPv6I1Sg86DgH/4hT9nrdRnyTxxuIL6YDtHXFsZBeMecUkdL
muAomKU3Q3lxqpOkJ39qmqRLRku3RfaZnatSu5wIx0SeblpASb+lwiL2ti/tUfj+
UMXBppCqVOcjRn1FU8CD463SWBBdYwKWRMmnsy4G1cS6zLoErXpbxIBKW6z8MCwr
bhHwA/Rsx2v7FyEqnqymkBzWWVNmw3WOOvZHDQ6cVLqsfwVSgpBY9GYDCnsCAwEA
AQKCAgB14QLzLhK1hRfTr4EY45jvM9T7vJTKver3TwIshLEmKbGaCkHqjWcivvC/
uyWdktO+g+vF0b39+MMMQO9iiDP0pHEV8s/VTeXnabOqvxlsQ5JduwvafZv9ok+H
QptoM0G2nEG77tSf9wXlZ0Z/yOZGVuwHNSb42Mnk4sJoj+f6qy5Fzm/CTbuy8l49
xtDxKAj5dI/Ga/2Z/G3bFwr6sr+8o3C5TeP8jlEi+EWwID5e0QX6HISYVnsMNx/g
BT4wNdzPf0xP1tx+KsMYx8S2rwnogHBSQWA/GhRSzDXhTMX57jKSH49v5PfxPWfz
3q/4y1QxebcMbzYVZmBne+XGaUbl50n8uE59FWfLY9oS00srNfWAgdcFavvYFxVr
Qg0QShh9i3HpoQXQ2SifedohyK5OftVqb5rto7VNNFqeq3YbBePqs/UFVsP91qoI
XRDASO+xwCwfKDX8b+uM+lgVTIfmJ8c2y5RAB09MyPsfJbj1neCUKCW2T6tNjtIm
Lh6waZPr7D8UlRv2/HdPjOOTyD+mKzL63C1pb2qVi9M3J+M63fHbgYXsVmtW/Grl
6VZ4fRHd/saXfgp4SA/fPXoQdcBoPlnvQNR4cGkKsVsHCVUIfA4YZvaRLcA97KJG
vxSGAEmy+HIKYLOuavpdoKGXulKtjeY/Hz7K1M/x3Kk6AjdYUQKCAQEAz5oSnl+C
4zEzPc96Tu9B8XKeMcE2vgJmcipQC0GzBdv/1Yzw1Qp8wwlMHJqFVwf+N3XDyj/Y
7SPmex3Bdi+mIiMqLFJxwtQYHD6/zItWVh3pbXheorBgGkgfs39lhzFQHoXv6cix
NqXZbuPVH0MFAf9FNiYvp33+AEZWbmYPk0lFVQVjEtJPzoR8v4Rlb0qq5N/mex3f
946Br/iTCqR7INBCcO3nJZGY2jgAeID9+K18O6cv1j2/7tc3fgt0Pl3UezzMPccx
Y2PxVlKAJL7wY9PNmh4dVdD8IYrIrQbtrxSPIETC30UdIkIgytg5opicisBiuFwo
07XY8zv9U78lbwKCAQEAwzjsXkNPBKGeqWQKqdNQ4z3zqxQB5LsSk1+cHxio3aBb
gvNnElCfQTP161qdD1jQM6bPoARzg4bIigwk1LyytW2MFgYx8QgwMU6S3kZkPFJg
/X6SXLHhvEBIBwkz5ucUP6sJ+cs4YtwPFqFVGbnY1CeZzlUSeIYwiSNjakSuMLZD
T/PKqxonjxi5I9g+60E5i/plrPjs1Q9IgUhLxmVVReERp3hpj5yWndp5V7TVnrIp
SsYnPix3t7g4uxsCfPOdAKaw4n9uHLwE+cvCbi2utAHzGHEjQoTuzkExwzT6LIOF
BMZtrGAgJzv86nHjQa9ia8UhP2vIspbDK2yQ8WAdtQKCAQARG9h29tYZlR9s86FX
yf38QP7qiMrTI+1/cR9Bnjt7uyK9Xa0nUYLwq9566P0eLAl2Vp05GMPu3yuKb+xW
qhyd6Zn7Jxw6+zG1ejJiUAVgeXyYSfg6niB9af4607/xQU4iBdW8xY5dO5PMwLf6
qJJMFNaGXOVGf2qkaSeMV5rm/33YQOZmUbDEC0Ugn2+gmV22GQGsmcywYS0s7GZp
1R5UmPUwy1pmTTZ0nXLke3TyvpFjdSbLGDGuJExtddIxpZfyRBNs7/KRB1aHT6tB
2/6Bq53hGqQ+Q0fUF9Tr9Ys3B5G4DhKlRdPd0+dR8DnnvX4BLVO1b9rpf64OdZ4t
/a2/AoIBAQCkggFc5adepbsHzw/VUAcnlvsQvQljb+kVW0o6QhN6vziePvIqUtoA
ngKrU25qklLQU88+bsHQofG3ssgOpPyLOkcEADBxho7l3eqReAvbcSfeNZyslBE/
C4QmubCM8Uj05fLAFmnrlLj6PvVxelSnYr+PSc0I1ztrNPD/ieSnk89hPnUYfi+7
u/+3nvBWWl5eAKFRg2o/mGNm3j9MbfPPsPupfiSmKjQZzRLXv8ELu+Jj6lsDX4F6
xbi4ougT104EUHNaSjvF5wLiZLvxEHnZopLxk9U8prx9/h4q+yed/y5GedfNnCs8
JKbaASKaJWrwmeuMgA1dwQGyRAhX/sDJAoIBACgRUpB34sQyw7iyVn0dNA4JvmBE
OLauolS8vLtuurpWrIIqj9A9Hp4KzEFvYOroFHuYOP3cR9DMD+7QOrGPFcnWMYrY
C7ZiNApJgouLO1X9eE18t9m7xHA0DUm9L15O7flBJ1I8snZN943Mw9sosCkDLlzY
M9NedaNmuM+V/3nCaC+jszmeqUSp8OdWKuUlxcrR38rcuJUsbjLvG5UYbXid2vsM
Sim2lzaUuZ6QzhqD4cJOq8VpUttBTBKoYszX4w7HEuIcO3UXabfHZXd5YlbjBzCp
Q3h2erOoD61vechLWZJRxEb0GOoDFDsF9J5JSbTfYhlryzU/f+Ed/1cMemM=
-----END RSA PRIVATE KEY-----
