Certificate:
    Data:
        Version: 3 (0x2)
        Serial Number: 1 (0x1)
    Signature Algorithm: sha256WithRSAEncryption
        Issuer: C=CH, ST=Vaud, L=Pully, O=Bacula, CN=Bacula-CA/emailAddress=kern@bacula.org
        Validity
            Not Before: Jun 30 16:34:18 2017 GMT
            Not After : Nov  5 15:31:00 2031 GMT
        Subject: C=CH, ST=Vaud, O=Bacula, CN=localhost
        Subject Public Key Info:
            Public Key Algorithm: rsaEncryption
                Public-Key: (4096 bit)
                Modulus:
                    00:a1:36:49:d7:1d:aa:22:8c:a2:b4:be:29:cf:66:
                    b2:0d:58:dc:ef:8e:85:00:b7:f0:1f:be:af:d8:4b:
                    42:c5:97:89:66:8f:99:75:b0:35:c5:f3:4b:7d:87:
                    b9:52:ac:0a:be:5e:43:07:83:07:ac:9d:51:22:04:
                    f5:9f:cf:b5:26:c2:e4:cd:ec:ab:97:c4:f8:e3:c6:
                    5e:65:4e:7e:bf:ad:c6:6a:66:1d:3f:0a:8b:f5:ba:
                    a7:15:91:96:e7:1c:00:b9:30:14:8b:17:7b:a5:ab:
                    89:70:92:b0:3c:06:86:7f:6c:74:2d:7e:92:06:dd:
                    25:6d:61:47:a6:f3:fa:9f:20:7b:f2:40:78:1d:df:
                    86:c7:2a:2f:aa:00:c4:ab:a4:f4:18:55:f8:5e:2f:
                    98:09:7b:b3:6c:97:a5:f1:9c:7f:9a:fd:41:de:bf:
                    5f:18:53:7c:e0:70:97:39:86:b8:63:91:87:61:5f:
                    a2:3d:e4:3b:4b:20:e1:ed:a8:07:18:b9:91:54:92:
                    12:4d:cc:28:61:fa:1f:da:5e:72:e9:36:25:8a:e2:
                    89:a6:be:9b:e6:c6:d7:0e:57:0b:41:f8:13:c5:d8:
                    5b:26:0a:28:aa:6a:b5:18:f7:06:a7:f8:d1:96:c8:
                    8c:64:6c:ce:75:f0:2d:de:85:fc:50:ca:9f:ce:a7:
                    a5:fc:2b:b1:60:09:28:2d:30:d2:df:5c:64:0b:ad:
                    a2:1e:53:e7:a9:c1:7c:91:12:6d:52:e5:9b:40:d9:
                    d6:64:ac:84:4f:96:8c:49:16:58:68:ed:b0:85:ec:
                    f0:57:dc:05:d7:61:0d:47:bd:96:eb:e8:97:b6:07:
                    6a:59:dd:78:74:70:14:85:66:51:5b:36:59:0a:77:
                    8e:b2:c2:f3:26:d6:ed:3d:94:8b:be:f2:a8:85:a7:
                    9d:ca:9d:22:b7:5c:e7:0f:cc:cd:d6:e8:ea:3d:bf:
                    98:4a:5d:5b:e4:a8:93:71:e9:34:3f:aa:fd:57:55:
                    de:1d:6c:9c:04:68:91:f5:a8:13:58:59:80:0b:a8:
                    67:e4:78:46:55:de:25:a6:3a:aa:ab:15:5b:7a:ea:
                    e9:6a:8b:6d:ef:fa:48:42:a0:99:e0:2b:64:00:a6:
                    29:5d:95:c5:15:43:63:97:1b:1b:64:c7:70:ce:36:
                    d9:5b:df:06:50:c0:b0:70:cc:b2:16:32:76:02:12:
                    65:e2:72:2a:66:da:73:5d:48:ac:3c:d4:21:b2:e8:
                    a0:de:b5:80:86:06:48:92:cf:84:b1:25:e7:2b:0c:
                    c3:e1:df:75:af:2c:15:d2:43:0f:19:d0:f0:30:32:
                    f4:19:c0:6a:3f:66:81:e5:bd:69:6e:9d:6a:80:96:
                    aa:e9:91
                Exponent: 65537 (0x10001)
        X509v3 extensions:
            X509v3 Basic Constraints: 
                CA:FALSE
            Netscape Comment: 
                OpenSSL Generated Certificate
            X509v3 Subject Key Identifier: 
                20:25:4E:CB:8D:9C:D0:05:1A:72:02:E5:31:70:35:9B:B5:05:F9:C1
            X509v3 Authority Key Identifier: 
                keyid:65:14:76:52:5D:EE:18:80:32:AD:79:C6:C6:20:7A:B5:A0:11:60:E1

    Signature Algorithm: sha256WithRSAEncryption
         ba:3f:c4:5f:1f:fd:d7:04:a2:7e:c4:72:12:78:e2:ac:0a:b4:
         16:84:57:9a:ce:ac:c1:b7:b3:b2:8b:63:dc:83:dc:ae:7e:93:
         43:91:f6:d1:c0:eb:b6:58:a5:60:32:99:cc:6e:c3:03:36:7c:
         d4:06:30:88:93:9b:51:a9:37:38:4d:7a:ae:df:0a:f0:19:8a:
         62:44:9f:74:46:67:ef:9c:d0:49:e4:ae:8b:ca:40:5d:8d:97:
         33:66:57:72:08:11:07:88:3b:5a:ef:7f:e4:1f:34:bc:dd:86:
         42:47:8a:1c:49:27:51:34:eb:c8:7f:30:1e:60:34:bb:29:b6:
         83:6b:68:4e:a0:f9:d3:2e:df:44:6f:52:7d:8d:61:97:e6:f7:
         c4:4d:ff:83:8a:8b:eb:68:55:7f:b7:6b:54:c5:e1:24:7f:c8:
         68:f2:d6:be:64:cd:9b:73:7d:43:f7:3f:c4:0d:d4:73:a3:11:
         b0:f9:67:01:e6:71:70:2d:b7:6e:8c:3a:86:65:49:a9:29:d9:
         f4:ac:db:61:6e:a2:22:e2:71:9a:13:27:ee:84:14:e7:1e:c2:
         e7:0a:2c:c6:97:6c:18:17:d2:12:26:95:55:50:71:bf:9b:cb:
         bc:1d:c8:4d:6d:c1:f0:48:74:ce:64:fe:9b:3d:5c:df:52:4a:
         c4:21:de:65:99:15:59:07:d5:5e:c1:9e:6d:36:89:2e:ad:e3:
         45:20:02:8c:9a:af:e8:6f:b8:bf:a9:5a:4c:2a:09:f7:43:9f:
         2d:30:c1:8d:12:1d:6f:78:2f:b4:ff:74:fd:01:f9:96:92:37:
         15:25:71:60:cc:75:37:22:c5:9d:10:89:ad:b5:62:2e:2c:85:
         e7:3d:c6:90:db:38:31:00:44:d2:c8:87:2e:73:58:a7:f0:96:
         91:e9:e3:a2:fe:36:f5:28:b9:53:dd:1b:a2:1d:db:68:81:e0:
         e7:84:8a:64:41:00:bf:5e:f0:d8:46:ad:d3:98:b9:46:fd:14:
         22:3f:4e:c4:c8:77:2a:08:b5:97:7f:ae:6b:c0:82:c0:ac:ce:
         ae:2c:29:1e:01:b2:f8:85:6c:45:72:b1:e4:25:39:d1:0f:07:
         09:1a:2c:f7:6c:7a:8f:df:93:b7:3a:15:e6:56:d9:3d:f7:9b:
         d8:31:5a:dc:48:17:24:bc:5b:19:b7:41:26:97:57:65:9c:e9:
         4b:96:91:2c:e7:4a:ff:ae:5d:16:35:c7:38:ba:c9:d8:db:02:
         2e:ca:3d:d6:d3:c6:50:2c:b6:04:b6:35:a7:63:0a:d7:d9:14:
         a2:77:b6:af:19:7c:6f:4d:72:74:80:eb:1d:03:40:62:76:35:
         af:b1:de:25:f8:95:8a:81
-----BEGIN CERTIFICATE-----
MIIFqDCCA5CgAwIBAgIBATANBgkqhkiG9w0BAQsFADBxMQswCQYDVQQGEwJDSDEN
MAsGA1UECAwEVmF1ZDEOMAwGA1UEBwwFUHVsbHkxDzANBgNVBAoMBkJhY3VsYTES
MBAGA1UEAwwJQmFjdWxhLUNBMR4wHAYJKoZIhvcNAQkBFg9rZXJuQGJhY3VsYS5v
cmcwHhcNMTcwNjMwMTYzNDE4WhgNMjAzMTExMDUxNTMxWjBBMQswCQYDVQQGEwJD
SDENMAsGA1UECAwEVmF1ZDEPMA0GA1UECgwGQmFjdWxhMRIwEAYDVQQDDAlsb2Nh
bGhvc3QwggIiMA0GCSqGSIb3DQEBAQUAA4ICDwAwggIKAoICAQChNknXHaoijKK0
vinPZrINWNzvjoUAt/Afvq/YS0LFl4lmj5l1sDXF80t9h7lSrAq+XkMHgwesnVEi
BPWfz7UmwuTN7KuXxPjjxl5lTn6/rcZqZh0/Cov1uqcVkZbnHAC5MBSLF3ulq4lw
krA8BoZ/bHQtfpIG3SVtYUem8/qfIHvyQHgd34bHKi+qAMSrpPQYVfheL5gJe7Ns
l6XxnH+a/UHev18YU3zgcJc5hrhjkYdhX6I95DtLIOHtqAcYuZFUkhJNzChh+h/a
XnLpNiWK4ommvpvmxtcOVwtB+BPF2FsmCiiqarUY9wan+NGWyIxkbM518C3ehfxQ
yp/Op6X8K7FgCSgtMNLfXGQLraIeU+epwXyREm1S5ZtA2dZkrIRPloxJFlho7bCF
7PBX3AXXYQ1HvZbr6Je2B2pZ3Xh0cBSFZlFbNlkKd46ywvMm1u09lIu+8qiFp53K
nSK3XOcPzM3W6Oo9v5hKXVvkqJNx6TQ/qv1XVd4dbJwEaJH1qBNYWYALqGfkeEZV
3iWmOqqrFVt66ulqi23v+khCoJngK2QApildlcUVQ2OXGxtkx3DONtlb3wZQwLBw
zLIWMnYCEmXicipm2nNdSKw81CGy6KDetYCGBkiSz4SxJecrDMPh33WvLBXSQw8Z
0PAwMvQZwGo/ZoHlvWlunWqAlqrpkQIDAQABo3sweTAJBgNVHRMEAjAAMCwGCWCG
SAGG+EIBDQQfFh1PcGVuU1NMIEdlbmVyYXRlZCBDZXJ0aWZpY2F0ZTAdBgNVHQ4E
FgQUICVOy42c0AUacgLlMXA1m7UF+cEwHwYDVR0jBBgwFoAUZRR2Ul3uGIAyrXnG
xiB6taARYOEwDQYJKoZIhvcNAQELBQADggIBALo/xF8f/dcEon7EchJ44qwKtBaE
V5rOrMG3s7KLY9yD3K5+k0OR9tHA67ZYpWAymcxuwwM2fNQGMIiTm1GpNzhNeq7f
CvAZimJEn3RGZ++c0EnkrovKQF2NlzNmV3IIEQeIO1rvf+QfNLzdhkJHihxJJ1E0
68h/MB5gNLsptoNraE6g+dMu30RvUn2NYZfm98RN/4OKi+toVX+3a1TF4SR/yGjy
1r5kzZtzfUP3P8QN1HOjEbD5ZwHmcXAtt26MOoZlSakp2fSs22FuoiLicZoTJ+6E
FOcewucKLMaXbBgX0hImlVVQcb+by7wdyE1twfBIdM5k/ps9XN9SSsQh3mWZFVkH
1V7Bnm02iS6t40UgAoyar+hvuL+pWkwqCfdDny0wwY0SHW94L7T/dP0B+ZaSNxUl
cWDMdTcixZ0Qia21Yi4shec9xpDbODEARNLIhy5zWKfwlpHp46L+NvUouVPdG6Id
22iB4OeEimRBAL9e8NhGrdOYuUb9FCI/TsTIdyoItZd/rmvAgsCszq4sKR4BsviF
bEVyseQlOdEPBwkaLPdseo/fk7c6FeZW2T33m9gxWtxIFyS8Wxm3QSaXV2Wc6UuW
kSznSv+uXRY1xzi6ydjbAi7KPdbTxlAstgS2NadjCtfZFKJ3tq8ZfG9NcnSA6x0D
QGJ2Na+x3iX4lYqB
-----END CERTIFICATE-----
-----BEGIN RSA PRIVATE KEY-----
MIIJKAIBAAKCAgEAoTZJ1x2qIoyitL4pz2ayDVjc746FALfwH76v2EtCxZeJZo+Z
dbA1xfNLfYe5UqwKvl5DB4MHrJ1RIgT1n8+1JsLkzeyrl8T448ZeZU5+v63GamYd
PwqL9bqnFZGW5xwAuTAUixd7pauJcJKwPAaGf2x0LX6SBt0lbWFHpvP6nyB78kB4
Hd+GxyovqgDEq6T0GFX4Xi+YCXuzbJel8Zx/mv1B3r9fGFN84HCXOYa4Y5GHYV+i
PeQ7SyDh7agHGLmRVJISTcwoYfof2l5y6TYliuKJpr6b5sbXDlcLQfgTxdhbJgoo
qmq1GPcGp/jRlsiMZGzOdfAt3oX8UMqfzqel/CuxYAkoLTDS31xkC62iHlPnqcF8
kRJtUuWbQNnWZKyET5aMSRZYaO2whezwV9wF12ENR72W6+iXtgdqWd14dHAUhWZR
WzZZCneOssLzJtbtPZSLvvKohaedyp0it1znD8zN1ujqPb+YSl1b5KiTcek0P6r9
V1XeHWycBGiR9agTWFmAC6hn5HhGVd4lpjqqqxVbeurpaott7/pIQqCZ4CtkAKYp
XZXFFUNjlxsbZMdwzjbZW98GUMCwcMyyFjJ2AhJl4nIqZtpzXUisPNQhsuig3rWA
hgZIks+EsSXnKwzD4d91rywV0kMPGdDwMDL0GcBqP2aB5b1pbp1qgJaq6ZECAwEA
AQKCAgAhqwva0Egy9PoaE0j6FrGC1hc2NKaUUtXkW1ewLW+hgpdggwcCrC1ezQPs
EIdku6d2wIrxK61ToHtMRorhuGhV0wgj9ZSUmr98GnamY7FW6Lzyhab//nzicfvp
JkHEvHVuN5tivSHGpL+MciY6Mwat4AGXasKmilMBt/pV5MhnqUoZettbKc6lE6tm
rshkLIwJ9RJs4TW4bUw4lqdCgXOo89Fo6sC6fN0spnb+vaMOsFr8vBNPJ7Y2Z4Sn
tJre0AqJBgSqmMOqSqmSWn1XNUa77bnfyBkZJlfNl+IzAdNnU1sd46tAhA6USyrp
s65Z9kJTyuGHggSiX4sleFvNtfeVELlVBVN6FtpVWe+Hie8VSUmP4MX8urfBxWMJ
nod9DfDeGnEFvj9hsuDRWKK5msIIv0obxIqrps9XfWZYnuGmmBnpb63+0QybtUGF
oBRkXbXb39A7ccB76b7w4hFkgDkG0lyoste+rvwJhpgpAp6mFGIEx8F7kfyqZa2s
/6UEK+8UZ+/7gvnuAo0sb4+0G/sH9TmfUz2hvlcXl5CJsj0xd0XgroRqiLMQhPO5
deTbYfryI8KahUFh4lzwV1TGoQWiIBw2mUmh2PmydLMmFdcQ1NggN8HfBzVaZcYF
p1ZNH1hWTXHnZGkWk9rXhQCAmBeisLSCLFoahCJ+RZ2J+J/pLQKCAQEA1X2OmvF3
d9GaneMqwGTWm3tmg7jtfE1Wa1GZdTD/gw8xqLuLRTnW+3eM8cxsHi/OQryDoNym
A10Msb8sqe9KX+Kn+HdCbqnZT1qlmw+s6OkpVOzRuH/V9W1hoOSE+Oeg/QCkZ/3x
oRr+CRNXt42pQ/v519Wlia/ZyP6fIgtXsrdZJUJbGnT7w0RhtGNe8ze4+HABPF3x
xNBM2CPIS0yZkrJWI/tIhKRmi6fJiHSP5ROqfsXb/YLaCjMN/534MTFYwSTDwQZl
jnBlqF0kAa3NaimQoZBDrNX6E+UKxSmMk200cGLFSqhpXwm53JWK9BIWbAR75CLC
gMJEgsu6YeDNiwKCAQEAwU/luwo5aRgVXLjGkHTdLRm88O5i/R481cWfghpIkwrX
NC1SfSyPxYxLTph/Zk8FhW7EGZ1VopZcaRFRbS0TgtJHMECCjLP8GL/nC3VW6gcd
7K+RfCXGV5cZ8UvIrvjGAH9ZwPAowU/bXVxT9HOn7oS7LVvkFWIfdZoXT819TWmb
YZJo613SFccvuKKecfEMZ+SQNC9RbGQuINl4bfluigrdnmvJEiUq1hqpUCwSpcHR
/RRflPqkaUPIlSISMBkKi4K4R2J0bTgwwla2pUevxzTK90OIaaNYpqrdP5ReTr3C
2pk/drGt2lyoqM8HUVISb6Br3ZEKxI4hjeVQdlSA0wKCAQAoNGsEtvCeufR6Q2ur
q9HWmhimOc9Pl2js8QMLVNzpm5Toh9kkgk4AMXVzm+HIlYwseT/4rVT+USmw16Xb
otrIz/B+FEeIe6gXD6UcXIldm3tTKP4d1sU+YQj/uclo7oYc32AWzXYRtvmcT+42
/RChYvScNvnjwiArf/gL+0LavzikkaiChQFctqYHyKb6+sV00/MHoVGElQ3Drolr
1NMfE0KxqALyJ9u/9Ss47Wqj4146XZyeU2Qog5DhUKiK6xYh2YCb+05o0rXyTQgY
4NhMY+N+6aI1DF76HCo5EygMI4a6m384Hhsp8LT125u9dyKN2RJT1k/22573WtKQ
2DsdAoIBAAO9fABmbj3uTVuB57WbzTu2J8WxlxC2qQ6pyDBIOec+anOD/PiXCCEW
Wc6nfK+KD91JC1pDhQikSB1wTFcEbEA3uVDhrqTyRopkDCBYoNneUWHm87WnNXM0
ZTgZ80QPZCVWUXI+M0uqM+BWjPlJ05H113lFMeCICXvJA3Jz01zQEkWNA6KqKgpp
1C6KVu51b3wDHBcmYzjpp0rTalUWYmEhXLBX/YfwWCfUVDpM3/99BIcVAdRsFQpE
WXkpM5jioyWX3eDjssT6NVdNPjNsc6YzC0pFcDo7AtgWrjkwsbJsUXzRQj0Vqvty
l4DMoKOeJuUqAWxEBiVPaq7IJQplECkCggEBAMDP+V0BtpWLn3mSyP75/i+SfYfn
sJmI68vVqlPN7dZnwkwbPktLcW1L9moLp3QGhXFaelJJwxNPvud3lU7hspXctCjX
ymxQI/h8m7uAcaNC1nCWtxgCgZFp2rLBDdjvDhk+4wA1hxNbEZ2/plsxLxhBSXFt
42fIx8gYg2sq+I+Ay4AnVBdwJkFUL5e5mxxh+G6EZ7HXgpM5qRNaUOqE6BKGzPGX
6SiVZdH3TzMhcqMC/UAFTWi9Zx1kMNJUN0fls5iD2sty3Fngf6aXslQliOSXxjx7
q5qP50Sy6ibpKXbt4Dc6mKFkUqwVHX+G629M9TzJjP9bHC/full66jnC+gw=
-----END RSA PRIVATE KEY-----
