Certificate:
    Data:
        Version: 3 (0x2)
        Serial Number: 1 (0x1)
    Signature Algorithm: sha256WithRSAEncryption
        Issuer: C=US, ST=MA, L=None, O=Bacula, CN=localhost/emailAddress=bacula@localhost
        Validity
            Not Before: Jul 21 12:27:39 2017 GMT
            Not After : Jul 21 14:27:38 2027 GMT
        Subject: C=US, ST=MA, O=Bacula, CN=localhost/emailAddress=bacula@localhost
        Subject Public Key Info:
            Public Key Algorithm: rsaEncryption
                Public-Key: (4096 bit)
                Modulus:
                    00:a8:f1:2b:8a:33:ed:3f:aa:75:6f:99:a7:ee:07:
                    f3:2d:cf:af:37:0e:0b:e3:fe:e3:3e:ae:16:fb:0d:
                    05:7e:db:22:d8:c9:97:02:82:b1:71:62:50:6f:83:
                    33:87:50:cf:96:ff:4a:1c:39:69:01:7d:d8:f3:3b:
                    07:6e:bf:84:f9:c7:4e:62:40:58:7e:5c:ad:fc:0a:
                    1d:fe:3e:9f:9e:00:e7:a1:d0:f1:a8:3a:44:ad:44:
                    25:ba:6d:98:88:70:c3:44:fb:a1:b8:64:88:86:bf:
                    76:dc:9b:a0:c2:16:fd:02:c1:1b:4d:3f:95:f6:8d:
                    1f:94:87:7f:a7:51:73:06:47:7e:e7:71:0a:07:b9:
                    60:2d:5b:de:a9:3f:d1:08:58:26:be:ab:ee:98:03:
                    9f:7b:43:26:27:f2:69:13:d8:63:06:3f:d0:2f:d5:
                    a9:92:13:99:d6:1d:e4:75:1b:09:a6:0b:6b:99:0a:
                    41:b5:4f:22:64:a5:48:09:c7:34:1e:28:7d:69:2d:
                    e9:04:fc:5e:63:5b:b0:54:0f:3a:8b:a0:fc:03:2f:
                    ad:b7:64:be:94:3b:95:36:bf:ef:3e:8b:ae:52:27:
                    e2:d0:9d:66:a3:b5:0c:59:eb:b2:e4:e9:b9:85:d2:
                    0c:2a:97:e0:8f:e9:45:57:22:f5:43:b7:51:09:3e:
                    82:1c:75:14:74:65:38:97:06:11:66:5a:b8:8e:77:
                    49:2b:1b:28:23:ea:e1:9d:d2:54:8a:89:bf:38:04:
                    ce:26:6c:10:87:73:b8:25:3c:fa:14:b8:44:e2:92:
                    aa:36:db:b4:b1:1e:27:f2:79:5e:63:2b:2a:b1:97:
                    c0:bd:6b:37:54:cd:1c:78:c9:72:33:bd:8a:9f:23:
                    01:76:56:47:1f:f7:87:64:fb:1a:73:7c:36:af:04:
                    22:dd:26:22:74:e0:5b:e0:94:e3:ba:85:c9:fc:3b:
                    0c:cb:82:86:57:e6:28:57:cb:a3:de:2b:aa:b9:df:
                    3b:1b:dd:53:39:76:a6:43:da:ba:6f:a1:fc:0f:2c:
                    fc:4d:b6:dc:39:5b:c4:9a:1a:d7:25:f2:05:a5:ac:
                    cc:56:42:5c:96:73:2d:99:09:a5:40:f2:43:7d:9f:
                    f0:31:5c:d2:07:f2:5b:11:03:c4:69:78:3a:10:a7:
                    8f:0f:78:63:d5:3a:a9:4a:82:11:6b:88:a9:18:81:
                    a9:cf:1e:d4:20:d0:d1:4e:c0:63:ef:98:2f:6c:6d:
                    90:0a:95:12:d0:39:4f:9c:8b:29:cb:de:16:a1:1d:
                    4a:0a:92:6f:7c:ee:57:80:19:37:26:57:79:ef:27:
                    8f:22:f7:24:15:82:5e:cf:00:2f:94:3f:2c:e9:f3:
                    38:42:13
                Exponent: 65537 (0x10001)
        X509v3 extensions:
            X509v3 Basic Constraints: 
                CA:FALSE
            Netscape Comment: 
                OpenSSL Generated Certificate
            X509v3 Subject Key Identifier: 
                A6:5A:FF:7A:79:24:A4:E7:21:21:F7:2D:E7:24:30:74:E6:50:34:FA
            X509v3 Authority Key Identifier: 
                keyid:FC:C2:38:90:4F:44:5F:58:16:5E:13:22:C6:2D:0B:77:D4:C8:55:CD

    Signature Algorithm: sha256WithRSAEncryption
         1d:f6:bd:96:d2:29:0d:45:22:9e:ca:ed:a6:35:5f:dc:45:cb:
         12:ce:c3:2c:1f:1c:24:e9:c1:fd:c4:37:52:36:63:fc:24:76:
         67:52:76:ce:62:c4:e6:29:91:3e:2b:f0:fe:41:66:4b:77:a1:
         d9:66:eb:92:aa:35:45:d1:04:90:05:87:33:56:da:58:ea:d4:
         e1:b3:89:79:56:eb:5a:20:9d:98:bd:50:47:33:93:d4:d7:dd:
         ff:17:e0:d7:e1:78:70:68:64:25:b2:21:49:26:a3:e9:e7:d2:
         e2:51:21:d9:6b:08:e5:50:7f:19:1a:5a:3d:80:cf:cd:1e:6b:
         5d:0f:ee:14:70:5e:58:17:ab:04:85:5a:f8:fc:f3:a7:48:49:
         f3:41:bb:49:7f:7b:73:db:06:00:4e:d8:77:16:b9:17:4b:75:
         62:b3:ed:d4:30:0d:02:79:2d:ab:e7:1a:df:dc:9b:23:05:e0:
         49:30:a5:16:b4:29:c0:f1:62:66:88:c6:10:50:ee:04:26:31:
         09:62:89:82:06:6d:8f:fa:f5:e3:14:85:9c:02:88:41:cb:ce:
         23:1e:cd:29:a2:05:54:a3:1b:09:8a:d8:29:17:49:d1:27:e3:
         e2:dc:76:be:35:4d:dc:33:ef:6e:be:ff:c7:f3:16:0e:df:39:
         5c:2f:38:a6:61:60:46:c3:c7:58:b8:c9:c0:89:6a:35:6e:e8:
         96:87:49:eb:a6:23:35:cc:14:31:8e:99:15:bd:63:2a:9d:d0:
         c9:21:c5:5e:f8:44:4f:38:93:d4:b7:4e:6a:48:ae:83:a3:2e:
         8b:a3:34:20:e2:2f:9b:e0:01:5e:54:f4:e4:79:2f:1d:97:4a:
         d3:f9:24:7a:a9:35:0d:63:3b:ae:23:4e:e3:b6:59:92:ce:ed:
         3d:bf:57:fb:e9:16:62:88:e7:f7:b1:66:5f:c1:5c:74:86:da:
         d9:4e:9f:8f:de:66:30:9e:8a:05:67:b6:56:a8:50:98:5d:e5:
         87:53:de:a0:25:31:67:02:37:23:3b:79:e1:3a:64:39:7b:7a:
         bb:a4:27:1d:8e:8a:e2:7c:f4:1b:80:c1:f8:16:69:63:d6:80:
         4f:e1:01:10:c6:4d:ae:11:47:a1:92:f8:f6:bb:67:8c:8c:7b:
         f4:fe:fd:8f:b8:c2:c7:2b:ed:59:b4:b6:07:18:5e:b3:0f:3b:
         a3:61:ae:3f:f5:30:61:4c:15:17:8f:90:e4:06:ff:9b:97:bb:
         1c:b2:ad:0d:89:dd:5d:44:8b:d7:fa:e9:4c:9a:46:00:9c:e7:
         92:d5:8a:64:df:98:97:8c:bc:35:d4:2b:ed:6e:fe:ff:93:f6:
         41:f8:bb:c8:ed:03:17:b0
-----BEGIN CERTIFICATE-----
MIIFxzCCA6+gAwIBAgIBATANBgkqhkiG9w0BAQsFADBvMQswCQYDVQQGEwJVUzEL
MAkGA1UECAwCTUExDTALBgNVBAcMBE5vbmUxDzANBgNVBAoMBkJhY3VsYTESMBAG
A1UEAwwJbG9jYWxob3N0MR8wHQYJKoZIhvcNAQkBFhBiYWN1bGFAbG9jYWxob3N0
MCAXDTE3MDcyMTEyMjczOVoYDzIwMjcwNzIxMTQyNzM4WjBgMQswCQYDVQQGEwJV
UzELMAkGA1UECAwCTUExDzANBgNVBAoMBkJhY3VsYTESMBAGA1UEAwwJbG9jYWxo
b3N0MR8wHQYJKoZIhvcNAQkBFhBiYWN1bGFAbG9jYWxob3N0MIICIjANBgkqhkiG
9w0BAQEFAAOCAg8AMIICCgKCAgEAqPErijPtP6p1b5mn7gfzLc+vNw4L4/7jPq4W
+w0Fftsi2MmXAoKxcWJQb4Mzh1DPlv9KHDlpAX3Y8zsHbr+E+cdOYkBYflyt/Aod
/j6fngDnodDxqDpErUQlum2YiHDDRPuhuGSIhr923Jugwhb9AsEbTT+V9o0flId/
p1FzBkd+53EKB7lgLVveqT/RCFgmvqvumAOfe0MmJ/JpE9hjBj/QL9WpkhOZ1h3k
dRsJpgtrmQpBtU8iZKVICcc0Hih9aS3pBPxeY1uwVA86i6D8Ay+tt2S+lDuVNr/v
PouuUifi0J1mo7UMWeuy5Om5hdIMKpfgj+lFVyL1Q7dRCT6CHHUUdGU4lwYRZlq4
jndJKxsoI+rhndJUiom/OATOJmwQh3O4JTz6FLhE4pKqNtu0sR4n8nleYysqsZfA
vWs3VM0ceMlyM72KnyMBdlZHH/eHZPsac3w2rwQi3SYidOBb4JTjuoXJ/DsMy4KG
V+YoV8uj3iuqud87G91TOXamQ9q6b6H8Dyz8TbbcOVvEmhrXJfIFpazMVkJclnMt
mQmlQPJDfZ/wMVzSB/JbEQPEaXg6EKePD3hj1TqpSoIRa4ipGIGpzx7UINDRTsBj
75gvbG2QCpUS0DlPnIspy94WoR1KCpJvfO5XgBk3Jld57yePIvckFYJezwAvlD8s
6fM4QhMCAwEAAaN7MHkwCQYDVR0TBAIwADAsBglghkgBhvhCAQ0EHxYdT3BlblNT
TCBHZW5lcmF0ZWQgQ2VydGlmaWNhdGUwHQYDVR0OBBYEFKZa/3p5JKTnISH3Leck
MHTmUDT6MB8GA1UdIwQYMBaAFPzCOJBPRF9YFl4TIsYtC3fUyFXNMA0GCSqGSIb3
DQEBCwUAA4ICAQAd9r2W0ikNRSKeyu2mNV/cRcsSzsMsHxwk6cH9xDdSNmP8JHZn
UnbOYsTmKZE+K/D+QWZLd6HZZuuSqjVF0QSQBYczVtpY6tThs4l5VutaIJ2YvVBH
M5PU193/F+DX4XhwaGQlsiFJJqPp59LiUSHZawjlUH8ZGlo9gM/NHmtdD+4UcF5Y
F6sEhVr4/POnSEnzQbtJf3tz2wYATth3FrkXS3Vis+3UMA0CeS2r5xrf3JsjBeBJ
MKUWtCnA8WJmiMYQUO4EJjEJYomCBm2P+vXjFIWcAohBy84jHs0pogVUoxsJitgp
F0nRJ+Pi3Ha+NU3cM+9uvv/H8xYO3zlcLzimYWBGw8dYuMnAiWo1buiWh0nrpiM1
zBQxjpkVvWMqndDJIcVe+ERPOJPUt05qSK6Doy6LozQg4i+b4AFeVPTkeS8dl0rT
+SR6qTUNYzuuI07jtlmSzu09v1f76RZiiOf3sWZfwVx0htrZTp+P3mYwnooFZ7ZW
qFCYXeWHU96gJTFnAjcjO3nhOmQ5e3q7pCcdjorifPQbgMH4Fmlj1oBP4QEQxk2u
EUehkvj2u2eMjHv0/v2PuMLHK+1ZtLYHGF6zDzujYa4/9TBhTBUXj5DkBv+bl7sc
sq0Nid1dRIvX+ulMmkYAnOeS1Ypk35iXjLw11Cvtbv7/k/ZB+LvI7QMXsA==
-----END CERTIFICATE-----
-----BEGIN RSA PRIVATE KEY-----
MIIJKAIBAAKCAgEAqPErijPtP6p1b5mn7gfzLc+vNw4L4/7jPq4W+w0Fftsi2MmX
AoKxcWJQb4Mzh1DPlv9KHDlpAX3Y8zsHbr+E+cdOYkBYflyt/Aod/j6fngDnodDx
qDpErUQlum2YiHDDRPuhuGSIhr923Jugwhb9AsEbTT+V9o0flId/p1FzBkd+53EK
B7lgLVveqT/RCFgmvqvumAOfe0MmJ/JpE9hjBj/QL9WpkhOZ1h3kdRsJpgtrmQpB
tU8iZKVICcc0Hih9aS3pBPxeY1uwVA86i6D8Ay+tt2S+lDuVNr/vPouuUifi0J1m
o7UMWeuy5Om5hdIMKpfgj+lFVyL1Q7dRCT6CHHUUdGU4lwYRZlq4jndJKxsoI+rh
ndJUiom/OATOJmwQh3O4JTz6FLhE4pKqNtu0sR4n8nleYysqsZfAvWs3VM0ceMly
M72KnyMBdlZHH/eHZPsac3w2rwQi3SYidOBb4JTjuoXJ/DsMy4KGV+YoV8uj3iuq
ud87G91TOXamQ9q6b6H8Dyz8TbbcOVvEmhrXJfIFpazMVkJclnMtmQmlQPJDfZ/w
MVzSB/JbEQPEaXg6EKePD3hj1TqpSoIRa4ipGIGpzx7UINDRTsBj75gvbG2QCpUS
0DlPnIspy94WoR1KCpJvfO5XgBk3Jld57yePIvckFYJezwAvlD8s6fM4QhMCAwEA
AQKCAgAiNHohSDQv4L5YMx8aBYgJ7XPHTNPBfLjb1vmWKOPE9G9QvzgQ7Q8qKsKo
YUMMkaMGKngB0OnewHEthfUSSjqNK/pF0Etagj9DuXSrJljA7+P2EkzrR6jh/9s3
rLrmXRZcICp1H/24comJTwU0Zt0hMqHpeQdO3PHY67o/0TDdw5oBGBT0zWaYqHIj
iGU1MEvf7QWox4sBtO3DxsPZncUm3cKz/KmRhuBtxq2bvDau5L8LRFVbdUM8Z253
dFqsBHyn0ADO3p3ptgW0b0TmQljj+EJO0Fn5vzqN1DyHSFaqEaNNo6DFYoG2rw8Q
Y/YJDychdJCl8o/0fYJ1DGee3IYREralVwEZYzGR/Dh1IXzDB/Z5kM/k8TpjyUSF
S41wap3LHIUK3J/c4aDWw45Jy5ut5PGX/T6Y4gGD8zIyDOXzwS63J9Cdl5IQcCTN
/nFhPrM+JAjhx9c0veo4Q3fOnpDRmKZphcs5ZJRaJRtRrl7pf83EQSnqgG+Nir2L
IExRU+TS1jmH22YqyjtD/jrywGUrw5UwqVi6RxCVJ2JfYNmZtNnhzHgXOeHP7MBM
eamhH07iVyf32rlPhKKSBTV9ZlU1RJ0O4AldDo9LDhOrp7G9osfXspEGmP0sHDBq
vyumwyORNgBhrml2x2f23vouAGfWwwddjEU1e4zL/7nIlNNu+QKCAQEA0w0+0ktS
MckrcFzbHUOdKLc+hfKMQie0N13Bgh3vD/M9Z5dJqelJYh19Phe1hxz81NBZZIGk
oXRAN5eNr+4QFuJtgChBZ6jzht8PBTPq5cjx4T7W/K6S+g9bm5mXirkzEIdbC+0z
x9FJTgqqGY2dlnroIhH519Dgl57X/CXPXcNIE6f3hK6/mtnZ7GCns20PhJWxdJN5
PrwRSO8i8IGj2eWkVoKqj+zbzgVp1q58LFD9hBFqZHLjDCbrZmg/8Y+MSkkBhPQB
lO3CGk+LZCdHinHThIFBCm2aN1o3SdNfL43WuWSTHWQx68DEozKMiPidpGZKgSdA
XYDN2o1oWLemVwKCAQEAzOwQGB4rVmBS4arzJ6s22BOuU4XKfC5cb0adifx7gH9D
ylYAuFhcpIIuePVCfq5TScHYp8SRTaVF2yHZrr7iwhoqVoJQLGhzovqPibtLcp/a
lXLuOqLleeZRcxKndgUlh8GZt8diJIWFsC5z6Bra9Bk8cHbR7RkfsmGFAAo79I91
mHg1HozBcM0jijCM6mp9XGIT2ZT+vhQBH642IycTX1Wi/ULHadf/vNeWbjKjov/T
/dgSQ3AGYfFj/lNS1fbY3wdex51iqi5Cep4cVFcQ1OPJUVdAnxOcFhn03BBdGO0Q
r1HNYda1l08sOZLmFzEwtM5CFrbWpFYmtp92NXbUpQKCAQAyhvdFTXcOKEVYD0L+
DJPxjX1QgDMIG41PvAh56ES1otxOkq+2F/3TmY/Eb9Sr1krJgGAGaetKJBTDumrX
db0wXWEtz3VpJc+3uGtWKYnRHXybGnpJ4FmbuFWMOQdI1PHewSkQ/+bnrblJD9CN
cZQK1L4Ceh9AhedfJU48Nakhn4EAA7SEdXm1zvYXW0SK9k9CxLvJVw0t8cSJm4bX
4ZGitxHTDFFdR62P80fVd8yOp40qMykvhznITQEKcWbtpBpIJpZQiEJgr1NLDUQn
5CeCg6HKFU/G+Vp0agrWh94/+ksv814tKTGyaWIqWA3BNRQ4qayoowcL26xs6HHU
25LdAoIBAHOLk5OVx0ff7jvSYWJ3tuflSQFNShv1JCeWQJQiahzNJZM8JRHMuQgF
Y2DOody+PLY0+A2411lZnGbv0kcm2MMrb73xonU3vCQkdbTqh6MtIVntQQiM+yld
xYVF+mighEXk0uD+Kod/Rh9OQgqYwearKBod1UaESQwS0qRwINhH373F4eXE5fnN
oYF02LAAtYjWwGyKB41zyCJt35a4nMK/jbSR59D1evym7upZ4UyyRX03TSz7SI4H
RyOLJgUBN82h4T5artxYUyHCbyTbJuFzQvt7YDOSIguQPTGshGHeoe7JCC5nm2Ki
wMQB4X0oPldkiX03QRXOgeutREDnLQUCggEBAMxp5N6EGK5NWrAFNy+Azde/QZct
Yr08Z7DvCgonNkkVvwu4bYevkT/zIqvgG22E5730o5qht+02W55C6iP655vjUk1V
84JtOC0qkU6hIvOt8SJB7GWTIwwLKaiB4mlX7NIqFnfAcvx99HSV1Efmd/sEAXIw
8CL0K6sNYD3cMg2rEKXUPyFU0PUsxmQeMiBSVmruDAI+97y1XGkCPVZQX0pnK1iQ
aHfFTWMYRPMLml2+wG6rzDuPXBp5+3FjsNRj4zkUrDdekti5YNC3xfn20I0y8ae6
CeQI5uVdwXrIXIvJ+WwLAJjYnv4TyoPOEK+tTP7cySEP7zg2/8lERCbsw2c=
-----END RSA PRIVATE KEY-----
