LIBRARY bacula.dll
EXPORTS
 
; address_conf.o
_Z14free_addressesP5dlist
_Z15store_addressesP13s_lex_contextP8RES_ITEMii
_Z17get_first_addressP5dlistPci
_Z17sockaddr_get_portPK8sockaddr
_Z17sockaddr_to_asciiPK8sockaddriPci
_Z19build_addresses_strP5dlistPci
_Z20store_addresses_portP13s_lex_contextP8RES_ITEMii
_Z22init_default_addressesPP5dlisti
_Z23store_addresses_addressP13s_lex_contextP8RES_ITEMii
_Z24get_first_port_net_orderP5dlist
_Z25get_first_port_host_orderP5dlist
_Z26remove_duplicate_addressesP5dlist
_Z27sockaddr_get_port_net_orderPK8sockaddr
_ZN6IPADDR11get_addressEPci
_ZN6IPADDR12get_sockaddrEv
_ZN6IPADDR12set_addr_anyEv
_ZN6IPADDR12set_port_netEt
_ZN6IPADDR16get_sockaddr_lenEv
_ZN6IPADDR17build_address_strEPci
_ZN6IPADDR8set_typeENS_6i_typeE
_ZN6IPADDR9copy_addrEPS_
_ZN6IPADDR9set_addr4EP7in_addr
_ZN6IPADDR9set_addr6EP8in6_addr
_ZN6IPADDRC1Ei
_ZN6IPADDRC1ERKS_
_ZN6IPADDRC2Ei
_ZN6IPADDRC2ERKS_
_ZNK6IPADDR10get_familyEv
_ZNK6IPADDR18get_port_net_orderEv
_ZNK6IPADDR8get_typeEv
 
; alist.o
_ZN5alist4lastEv
_ZN5alist4nextEv
_ZN5alist4prevEv
_ZN5alist5firstEv
_ZN5alist7prependEPv
_ZN5ilist3putEiPv
_ZN8baselist11remove_itemEi
_ZN8baselist3getEi
_ZN8baselist6appendEPv
_ZN8baselist7destroyEv
_ZN8baselist9grow_listEv
 
; attr.o
_Z15print_ls_outputP3JCRP4ATTRi
_Z24build_attr_output_fnamesP3JCRP4ATTR
_Z24unpack_attributes_recordP3JCRiPciP4ATTR
_Z8new_attrP3JCR
_Z9free_attrP4ATTR
 
; attribs.o
_Z11decode_statPcP4statiPi
_Z11encode_statPcP4statiii
_Z11set_own_modP4ATTRPcjjt
_Z13decode_LinkFIPcP4stati
_Z14set_attributesP3JCRP4ATTRP5BFILE
_Z16encode_attribsExP3JCRPcP6FF_PKT
_Z16set_mod_own_timeP3JCRP5BFILEP4ATTR
_Z18select_data_streamP6FF_PKT
_Z9win_errorP3JCRiPKcPc
_Z9win_errorP3JCRPKcm
_Z9win_errorP3JCRPKcPc
 
; base64.o
_Z11base64_initv
_Z11from_base64PxPc
_Z13base64_to_binPciS_i
_Z13bin_to_base64PciS_ii
_Z9to_base64xPc
 
; berrno.o
_ZN6berrno20format_win32_messageEv
_ZN6berrno9bstrerrorEv
 
; bfile.o
_Z10set_fattrsP5BFILEP4stat
_Z11bget_handleP5BFILE
_Z11int32_LE2BEPii
_Z11int64_LE2BEPxx
_Z14have_win32_apiv
_Z14set_cmd_pluginP5BFILEP3JCR
_Z15is_win32_streami
_Z15stream_to_asciii
_Z16set_win32_backupP5BFILE
_Z18is_portable_backupP5BFILE
_Z19set_portable_backupP5BFILE
_Z26processWin32BackupAPIBlockP5BFILEPvi
_Z27is_restore_stream_supportedi
_Z5binitP5BFILE
_Z5bopenP5BFILEPKcyt
_Z5breadP5BFILEPvj
_Z6bcloseP5BFILE
_Z6blseekP5BFILExi
_Z6bwriteP5BFILEPvj
_Z8is_bopenP5BFILE
_Z9pause_msgPKcS0_iS0_
 
; bget_msg.o
_Z8bget_msgP5BSOCK
_ZN6GetMsg14wait_read_sockEi
_ZN6GetMsg15start_read_sockEv
_ZN6GetMsg19do_read_sock_threadEv
_ZN6GetMsg7is_doneEv
_ZN6GetMsg7is_stopEv
_ZN6GetMsg8bget_msgEPP8bmessage
_ZN6GetMsg8is_errorEv
_ZN6GetMsgC1EP3JCRP5BSOCKPKci
_ZN6GetMsgC2EP3JCRP5BSOCKPKci
_ZN6GetMsgD0Ev
_ZN6GetMsgD1Ev
_ZN6GetMsgD2Ev
_ZN8bmessage4swapEP5BSOCK
_ZN8bmessageC1Ei
_ZN8bmessageC2Ei
_ZN8bmessageD0Ev
_ZN8bmessageD1Ev
_ZN8bmessageD2Ev
 
; binflate.o
_Z8ZdeflatePciS_Ri
_Z8ZinflatePciS_Ri
 
; bnet.o
_Z10init_bsockP3JCRiPKcS2_iP8sockaddr
_Z11read_nbytesP5BSOCKPci
_Z11resolv_hostiPKcP5dlist
_Z12write_nbytesP5BSOCKPci
_Z15bnet_tls_clientP11TLS_ContextP5BSOCKP5alist
_Z15bnet_tls_serverP11TLS_ContextP5BSOCKP5alist
_Z16set_socket_errnoi
_Z17bnet_host2ipaddrsPKciPS0_
_Z17bnet_sig_to_asciii
_Z9dup_bsockP5BSOCK
 
; bnet_server.o
_Z18bnet_thread_serverP5dlistiP9workq_tagPFPvS3_E
_Z23bnet_stop_thread_server14ptw32_handle_t
 
; bpipe.o
_Z11run_programPciRS_
_Z23run_program_full_outputPciRS_PS_
 
; breg.o
_Z11new_bregexpPKc
_Z12free_bregexpP7BREGEXP
_Z12get_bregexpsPKc
_Z13free_bregexpsP5alist
_Z14apply_bregexpsPKcP5alistPPc
_Z19bregexp_build_wherePciS_S_S_
_Z21bregexp_escape_stringPcPKcc
_Z28bregexp_get_build_where_sizePcS_S_
_ZN7BREGEXP10edit_substEPKcP12b_regmatch_t
_ZN7BREGEXP12return_fnameEPKci
_ZN7BREGEXP14extract_regexpEPKc
_ZN7BREGEXP16compute_dest_lenEPKcP12b_regmatch_t
_ZN7BREGEXP5debugEv
_ZN7BREGEXP7replaceEPKc
 
; bregex.o
b_re_compile_fastmap
b_re_compile_initialize
b_re_compile_pattern
b_regcomp
b_regerror
b_regexec
b_regfree
b_re_match
b_re_search
b_re_set_syntax
_Z24re_registers_to_regmatchP12re_registersP12b_regmatch_tj
 
; bsnprintf.o
_Z10bvsnprintfPciPKcS_
_Z9bsnprintfPciPKcz
 
; bsock.o
_Z14dump_bsock_msgijPKcjijPci
_Z9new_bsockv
_ZN13BSOCKCallbackC1Ev
_ZN13BSOCKCallbackC2Ev
_ZN13BSOCKCallbackD0Ev
_ZN13BSOCKCallbackD1Ev
_ZN13BSOCKCallbackD2Ev
_ZN5BSOCK11set_lockingEv
_ZN5BSOCK12set_blockingEv
_ZN5BSOCK12set_killableEb
_ZN5BSOCK13clear_lockingEv
_ZN5BSOCK13comm_compressEv
_ZN5BSOCK14wait_data_intrEii
_ZN5BSOCK15control_bwlimitEi
_ZN5BSOCK15set_buffer_sizeEji
_ZN5BSOCK15set_nonblockingEv
_ZN5BSOCK16restore_blockingEi
_ZN5BSOCK18set_source_addressEP5dlist
_ZN5BSOCK21authenticate_directorEPKcS1_P11TLS_ContextPci
_ZN5BSOCK4initEv
_ZN5BSOCK4openEP3JCRPKcPcS4_ixPi
_ZN5BSOCK4recvEv
_ZN5BSOCK4sendEi
_ZN5BSOCK5closeEv
_ZN5BSOCK5fsendEPKcz
_ZN5BSOCK6cancelEv
_ZN5BSOCK6signalEi
_ZN5BSOCK7connectEP3JCRixxPKcPcS4_ii
_ZN5BSOCK7despoolEPFviEi
_ZN5BSOCK7destroyEv
_ZN5BSOCK8_destroyEv
_ZN5BSOCK8fin_initEP3JCRiPKcS3_iP8sockaddr
_ZN5BSOCK8free_tlsEv
_ZN5BSOCK8get_peerEPci
_ZN5BSOCK9bstrerrorEv
_ZN5BSOCK9wait_dataEii
 
; bsys.o
_Z10b_strerroriPcj
_Z11bmicrosleepii
_Z11bstrcasecmpPKcS0_
_Z11quote_wherePcPKc
_Z11stack_tracev
_Z12fd_wait_datai12fd_wait_modeii
_Z12quote_stringPcPKc
_Z12safer_unlinkPKcS0_
_Z15create_pid_filePcPKci
_Z15delete_pid_filePcPKci
_Z15escape_filenamePKc
_Z15read_state_filePcPKci
_Z16create_lock_filePcPKcS1_PS_Pi
_Z16write_state_filePcPKci
_Z17fs_get_free_spacePKcPxS1_
_Z20make_unique_filenamePPciS_
_Z5bfreePv
_Z6bfgetsPciP6_iobuf
_Z6bfgetsRPcP6_iobuf
_Z6bfopenPKcS0_
_Z7bacceptiP8sockaddrPi
_Z7bcallocjj
_Z7bstrcmpPKcS0_
_Z7cstrlenPKc
_Z8b_mallocPKcij
_Z8breallocPvj
_Z8bstrncatPcPKci
_Z8bstrncatPcR8POOL_MEMi
_Z8bstrncpyPcPKci
_Z8bstrncpyPcR8POOL_MEMi
_Z8copyfilePKcS0_
_Z9setup_envPPc
 
; btime.o
_Z10bstrftimesPcix
_Z11date_decodedPjPhS0_
_Z11date_encodejhh
_Z11time_decodedPhS_S_Pf
_Z11time_encodehhhf
_Z12bstrftime_dnPcix
_Z12bstrftime_ncPcix
_Z12bstrftime_nyPcix
_Z12str_to_utimePc
_Z13btime_to_unixx
_Z14btime_to_utimex
_Z16date_time_decodeP9date_timePjPhS2_S2_S2_S2_Pf
_Z16date_time_encodeP9date_timejhhhhhf
_Z16get_current_timeP9date_time
_Z17date_time_compareP9date_timeS0_
_Z17get_current_btimev
_Z6tm_womii
_Z6tm_woyl
_Z7tm_ldomii
_Z9bstrftimePcix
_Z9bstrutimePcix
_Z9tm_decodeP9date_timeP2tm
_Z9tm_encodeP9date_timeP2tm
 
; btimers.o
_Z16stop_bsock_timerP8btimer_t
_Z16stop_child_timerP8btimer_t
_Z17start_bsock_timerP5BSOCKj
_Z17start_child_timerP3JCRij
_Z17stop_thread_timerP8btimer_t
_Z18start_thread_timerP3JCR14ptw32_handle_tj
 
; compat.o
mkstemp
nanosleep
snprintf
umask
_Z10binet_ptoniPKcPv
_Z10open_bpipePciPKcPS_
_Z11close_bpipeP5BPIPE
_Z11close_wpipeP5BPIPE
_Z11LogErrorMsgPKc
_Z11malloc_trimi
_Z11strncasecmpPKcS0_i
_Z11win32_cgetsPci
_Z11win32_chdirPKc
_Z11win32_chmodPKct
_Z11win32_fputsPKcP6_iobuf
_Z11win32_mkdirPKc
_Z12gettimeofdayP7timevalP8timezone
_Z12init_signalsPFviE
_Z12UTF8_2_wcharPPcPKc
_Z12wchar_2_UTF8PcPKwi
_Z12wchar_2_UTF8PPcPKw
_Z12win32_getcwdPci
_Z12win32_unlinkPKc
_Z15get_memory_infoPci
_Z15init_stack_dumpv
_Z15win32_ftruncateix
_Z16wchar_win32_pathPKcPw
_Z17SetVSSPathConvertPFivEPFiPKcPciEPFiPKwPwiE
_Z18CreateChildProcessPKcPvS1_S1_
_Z18cvt_ftime_to_utimeRK9_FILETIME
_Z18cvt_utime_to_ftimeRKlR9_FILETIME
_Z18GetApplicationNamePKcPPcPS0_
_Z18unix_name_to_win32PPcPKc
_Z20allow_os_suspensionsv
_Z21Win32ConvCleanupCachev
_Z22prevent_os_suspensionsv
_Z28make_win32_path_UTF8_2_wcharPPcPKcPi
_Z4forkv
_Z4killii
_Z4pipePi
_Z4statPKcP4stat
_Z5chownPKcjj
_Z5dlsymPvPKc
_Z5fcntlii
_Z5fcntliil
_Z5fstatiP4stat
_Z5hstatPvP4stat
_Z5lstatPKcP4stat
_Z5sleepi
_Z6dlopenPKci
_Z6execvpPKcPPc
_Z6lchownPKcjj
_Z6randomv
_Z6syslogiPKcz
_Z7dlclosePv
_Z7dlerrorv
_Z7geteuidv
_Z7opendirPKc
_Z7openlogPKcii
_Z7srandomj
_Z7symlinkPKcS0_
_Z7waitpidiPii
_Z8breaddirPvRPc
_Z8closedirPv
_Z8closelogv
_Z8getArgv0PKc
_Z8getgrgidj
_Z8getpwuidj
_Z8pathconfPKci
_Z8readlinkPKcPci
_Z8WSA_Initv
_Z9ErrorExitPKc
_Z9inet_atonPKcP7in_addr
_ZN6winverC1Ev
_ZN6winverC2Ev
 
; cram-md5.o
_Z16cram_md5_respondP5BSOCKPKcPiS3_
_Z18cram_md5_challengeP5BSOCKPKcii
 
; crc32.o
_Z6bcrc32Phi
 
; create_file.o
_Z11create_fileP3JCRP4ATTRP5BFILEi
 
; crypto.o
_Z13CryptoData_itv
_Z13SignerInfo_itv
_Z14CryptoData_newv
_Z14d2i_CryptoDataPP10CryptoDataPPKhl
_Z14d2i_SignerInfoPP10SignerInfoPPKhl
_Z14i2d_CryptoDataP10CryptoDataPPh
_Z14i2d_SignerInfoP10SignerInfoPPh
_Z14SignerInfo_newv
_Z15CryptoData_freeP10CryptoData
_Z15crypto_sign_newP3JCR
_Z15crypto_strerror14crypto_error_t
_Z15SignerInfo_freeP10SignerInfo
_Z16crypto_sign_freeP9Signature
_Z16RecipientInfo_itv
_Z16SignatureData_itv
_Z17crypto_cipher_newP14Crypto_SessionbPj
_Z17crypto_digest_newP3JCR15crypto_digest_t
_Z17d2i_RecipientInfoPP13RecipientInfoPPKhl
_Z17d2i_SignatureDataPP13SignatureDataPPKhl
_Z17i2d_RecipientInfoP13RecipientInfoPPh
_Z17i2d_SignatureDataP13SignatureDataPPh
_Z17RecipientInfo_newv
_Z17SignatureData_newv
_Z18crypto_cipher_freeP14Cipher_Context
_Z18crypto_digest_freeP6Digest
_Z18crypto_digest_nameP6Digest
_Z18crypto_keypair_dupP12X509_Keypair
_Z18crypto_keypair_newv
_Z18crypto_session_new15crypto_cipher_tP5alist
_Z18crypto_sign_decodeP3JCRPKhj
_Z18crypto_sign_encodeP9SignaturePhPj
_Z18crypto_sign_verifyP9SignatureP12X509_KeypairP6Digest
_Z18RecipientInfo_freeP13RecipientInfo
_Z18SignatureData_freeP13SignatureData
_Z19crypto_keypair_freeP12X509_Keypair
_Z19crypto_session_freeP14Crypto_Session
_Z20crypto_cipher_updateP14Cipher_ContextPKhjS2_Pj
_Z20crypto_digest_updateP6DigestPKhj
_Z21crypto_session_decodePKhjP5alistPP14Crypto_Session
_Z21crypto_session_encodeP14Crypto_SessionPhPj
_Z22crypto_cipher_finalizeP14Cipher_ContextPhPj
_Z22crypto_digest_finalizeP6DigestPhPj
_Z22crypto_keypair_has_keyPKc
_Z22crypto_sign_add_signerP9SignatureP6DigestP12X509_Keypair
_Z22crypto_sign_get_digestP9SignatureP12X509_KeypairR15crypto_digest_tPP6Digest
_Z23crypto_keypair_load_keyP12X509_KeypairPKcPFiPciPKvES5_
_Z24crypto_keypair_load_certP12X509_KeypairPKc
_Z25crypto_digest_stream_typei
_Z27crypto_default_pem_callbackPciPKv
 
; daemon.o
_Z12daemon_startv
 
; dlist.o
_Z15new_dlistStringPKc
_Z15new_dlistStringPKci
_ZN5dlist12insert_afterEPvS0_
_ZN5dlist13binary_insertEPvPFiS0_S0_E
_ZN5dlist13binary_searchEPvPFiS0_S0_E
_ZN5dlist13insert_beforeEPvS0_
_ZN5dlist22binary_insert_multipleEPvPFiS0_S0_E
_ZN5dlist4nextEPv
_ZN5dlist4prevEPv
_ZN5dlist6appendEPv
_ZN5dlist6removeEPv
_ZN5dlist7destroyEv
_ZN5dlist7prependEPv
 
; drivetype.o
_Z9drivetypePKcPci
 
; edit.o
_Z10add_commasPcS_
_Z10edit_int64xPc
_Z10edit_utimexPci
_Z11edit_uint64yPc
_Z11is_a_numberPKc
_Z12str_to_int64Pc
_Z13is_an_integerPKc
_Z13is_name_validPKcPPc
_Z13str_to_uint64Pc
_Z14size_to_uint64PciPy
_Z15speed_to_uint64PciPy
_Z16is_a_number_listPKc
_Z17duration_to_utimePcPx
_Z22edit_int64_with_commasxPc
_Z23edit_uint64_with_commasyPc
_Z23edit_uint64_with_suffixyPc
 
; enable_priv.o
_Z24enable_backup_privilegesP3JCRi
 
; find.o
_Z10find_filesP3JCRP6FF_PKTPFiS0_S2_bES4_
_Z11accept_fileP6FF_PKT
_Z13is_in_filesetP6FF_PKT
_Z15init_find_filesv
_Z15term_find_filesP6FF_PKT
_Z16set_find_optionsP6FF_PKTil
_Z25set_find_changed_functionP6FF_PKTPFbP3JCRS0_E
_Z26set_find_snapshot_functionP6FF_PKTPFbP3JCRS0_P5dlistP11dlistStringE
 
; find_one.o
_Z13check_changesP3JCRP6FF_PKT
_Z13find_one_fileP3JCRP6FF_PKTPFiS0_S2_bEPcjb
_Z13term_find_oneP6FF_PKT
_Z16has_file_changedP3JCRP6FF_PKT
_Z22ff_pkt_set_link_digestP6FF_PKTiPKcj
 
; flist.o
_ZN5flist5queueEPv
_ZN5flist7dequeueEv
_ZN5flist7destroyEv
 
; fnmatch.o
fnmatch
 
; fstype.o
_Z13add_mtab_itemPvP4statPKcS3_S3_S3_
_Z6fstypeP6FF_PKTPci
_Z9read_mtabPFvPvP4statPKcS3_S3_S3_ES_
 
; guid_to_name.o
_Z13new_guid_listv
_Z14free_guid_listP9guid_list
_ZN9guid_list11gid_to_nameEjPci
_ZN9guid_list11uid_to_nameEjPci
 
; hmac.o
_Z8hmac_md5PhiS_iS_
 
; htable.o
_ZN6htable10grow_tableEv
_ZN6htable10hash_indexEPc
_ZN6htable10hash_indexEy
_ZN6htable11hash_mallocEi
_ZN6htable13hash_big_freeEv
_ZN6htable14malloc_big_bufEi
_ZN6htable4initEPvS0_i
_ZN6htable4nextEv
_ZN6htable4sizeEv
_ZN6htable5firstEv
_ZN6htable5statsEv
_ZN6htable6insertEPcPv
_ZN6htable6insertEyPv
_ZN6htable6lookupEPc
_ZN6htable6lookupEy
_ZN6htable7destroyEv
_ZN6htableC1EPvS0_i
_ZN6htableC2EPvS0_i
 
; ini.o
_Z13ini_store_strP13s_lex_contextP10ConfigFileP9ini_items
_Z14ini_store_boolP13s_lex_contextP10ConfigFileP9ini_items
_Z14ini_store_dateP13s_lex_contextP10ConfigFileP9ini_items
_Z14ini_store_nameP13s_lex_contextP10ConfigFileP9ini_items
_Z15ini_store_int32P13s_lex_contextP10ConfigFileP9ini_items
_Z15ini_store_int64P13s_lex_contextP10ConfigFileP9ini_items
_Z16ini_store_pint32P13s_lex_contextP10ConfigFileP9ini_items
_Z16ini_store_pint64P13s_lex_contextP10ConfigFileP9ini_items
_Z18ini_get_store_codePFbP13s_lex_contextP10ConfigFileP9ini_itemsE
_Z19ini_store_alist_strP13s_lex_contextP10ConfigFileP9ini_items
_Z21ini_get_store_handlerPKc
_ZN10ConfigFile10free_itemsEv
_ZN10ConfigFile11clear_itemsEv
_ZN10ConfigFile11dump_stringEPKci
_ZN10ConfigFile11unserializeEPKc
_ZN10ConfigFile12dump_resultsEPPc
_ZN10ConfigFile5parseEPKc
_ZN10ConfigFile5parseEv
_ZN10ConfigFile8get_itemEPKc
_ZN10ConfigFile9parse_bufEPKc
_ZN10ConfigFile9serializeEPKc
_ZN10ConfigFile9serializeEPPc
_ZN10ConfigFileD0Ev
_ZN10ConfigFileD1Ev
 
; jcr.o
timeout_handler
_Z10b_free_jcrPKciP3JCR
_Z11unlock_jobsv
_Z12jcr_walk_endP3JCR
_Z12job_end_pushP3JCRPFvS0_PvES1_
_Z13dbg_print_jcrP6_iobuf
_Z13get_jcr_by_idj
_Z13jcr_walk_nextP3JCR
_Z14create_jcr_keyv
_Z14jcr_walk_startv
_Z14set_jcr_in_tsdP3JCR
_Z16dbg_jcr_add_hookPFvP3JCRP6_iobufE
_Z16get_jcr_from_tsdv
_Z18get_jcr_by_sessionjj
_Z18get_jobid_from_tid14ptw32_handle_t
_Z18get_jobid_from_tsdv
_Z18init_jcr_subsystemv
_Z19init_last_jobs_listv
_Z19lock_last_jobs_listv
_Z19read_last_jobs_listiy
_Z19remove_jcr_from_tsdP3JCR
_Z19term_last_jobs_listv
_Z20get_jcr_by_full_namePc
_Z20write_last_jobs_listiy
_Z21unlock_last_jobs_listv
_Z23get_jcr_by_partial_namePc
_Z24get_next_jobid_from_listPPcPj
_Z7new_jcriPFvP3JCRE
_Z9job_countv
_Z9lock_jobsv
_ZN3JCR12setJobStatusEi
_ZN3JCR12set_killableEb
_ZN3JCR13sendJobStatusEi
_ZN3JCR13sendJobStatusEv
_ZN3JCR13setJobStartedEv
_ZN3JCR14can_be_stoppedEv
_ZN3JCR14get_ActionNameEb
_ZN3JCR17get_OperationNameEv
_ZN3JCR21my_thread_send_signalEi
_ZN3JCR8JobReadsEv
 
; lex.o
_Z11scan_to_eolP13s_lex_context
_Z12lex_get_charP13s_lex_context
_Z12lex_open_bufP13s_lex_contextPKcPFvS2_iS0_S2_zE
_Z13lex_check_eolP13s_lex_context
_Z13lex_get_tokenP13s_lex_contexti
_Z13lex_open_fileP13s_lex_contextPKcPFvS2_iS0_S2_zE
_Z14lex_close_fileP13s_lex_context
_Z14lex_tok_to_stri
_Z14lex_unget_charP13s_lex_context
_Z20scan_to_next_not_eolP13s_lex_context
_Z25lex_store_clear_passwordsP13s_lex_context
_Z29lex_set_default_error_handlerP13s_lex_context
_Z32lex_set_error_handler_error_typeP13s_lex_contexti
 
; lockmgr.o
_Z14dbg_print_lockP6_iobuf
_Z18bthread_change_uidjj
_Z21bthread_get_thread_idv
_Z6lmgr_pPP16pthread_mutex_t_
_Z6lmgr_vPP16pthread_mutex_t_
 
; lz4.o
LZ4_compress
LZ4_compressBound
LZ4_compress_continue
LZ4_compress_default
LZ4_compress_destSize
LZ4_compress_fast
LZ4_compress_fast_continue
LZ4_compress_fast_extState
LZ4_compress_limitedOutput
LZ4_compress_limitedOutput_continue
LZ4_compress_limitedOutput_withState
LZ4_compress_withState
LZ4_create
LZ4_createStream
LZ4_createStreamDecode
LZ4_decompress_fast
LZ4_decompress_fast_continue
LZ4_decompress_fast_usingDict
LZ4_decompress_fast_withPrefix64k
LZ4_decompress_safe
LZ4_decompress_safe_continue
LZ4_decompress_safe_partial
LZ4_decompress_safe_usingDict
LZ4_decompress_safe_withPrefix64k
LZ4_freeStream
LZ4_freeStreamDecode
LZ4_loadDict
LZ4_resetStream
LZ4_resetStreamState
LZ4_saveDict
LZ4_setStreamDecode
LZ4_sizeofState
LZ4_sizeofStreamState
LZ4_slideInputBuffer
LZ4_uncompress
LZ4_uncompress_unknownOutputSize
LZ4_versionNumber
LZ4_versionString
_Z23LZ4_compress_fast_forcePKcPciii
_Z25LZ4_compress_forceExtDictP12LZ4_stream_uPKcPci
_Z32LZ4_decompress_safe_forceExtDictPKcPciiS0_i
 
; match.o
_Z11match_filesP3JCRP6FF_PKTPFiS0_S2_bE
_Z16file_is_excludedP6FF_PKTPKc
_Z16file_is_includedP6FF_PKTPKc
_Z22get_next_included_fileP6FF_PKTP15s_included_file
_Z25add_fname_to_exclude_listP6FF_PKTPKc
_Z25add_fname_to_include_listP6FF_PKTiPKc
_Z26term_include_exclude_filesP6FF_PKT
 
; md5.o
_Z11byteReversePhj
_Z12MD5TransformPjS_
_Z7MD5InitP10MD5Context
_Z8MD5FinalPhP10MD5Context
_Z9MD5UpdateP10MD5ContextPhj
 
; mem_pool.o
_Z13sm_get_memoryPKcii
_Z17close_memory_poolv
_Z18sm_get_pool_memoryPKcii
_Z19sm_free_pool_memoryPKciPc
_Z21sm_sizeof_pool_memoryPKciPc
_Z22garbage_collect_memoryv
_Z22sm_realloc_pool_memoryPKciPci
_Z23print_memory_pool_statsv
_Z25sm_check_pool_memory_sizePKciPci
_Z27garbage_collect_memory_poolv
_Z9pm_memcpyPPcPKci
_Z9pm_memcpyR8POOL_MEMPKci
_Z9pm_memcpyRPcPKci
_Z9pm_memcpyRPcR8POOL_MEMi
_Z9pm_strcatPPcPKc
_Z9pm_strcatR8POOL_MEMPKc
_Z9pm_strcatR8POOL_MEMS0_
_Z9pm_strcatRPcPKc
_Z9pm_strcatRPcR8POOL_MEM
_Z9pm_strcpyPPcPKc
_Z9pm_strcpyR8POOL_MEMPKc
_Z9pm_strcpyRPcPKc
_Z9pm_strcpyRPcR8POOL_MEM
_ZN8POOL_MEM10realloc_pmEi
_ZN8POOL_MEM6strcatEPKc
_ZN8POOL_MEM6strcpyEPKc
_ZN8POOL_MEM8max_sizeEv
 
; message.o
_Z10get_blowupv
_Z10get_hangupv
_Z10my_name_isiPPcPKc
_Z10set_blowupi
_Z10set_hangupi
_Z12add_msg_destP4MSGSiiPcS1_
_Z12get_basenamePKc
_Z12rem_msg_destP4MSGSiiPc
_Z13debug_get_tagjPPKc
_Z13free_msgs_resP4MSGS
_Z14debug_find_tagPKcbPx
_Z14set_assert_msgPKciS0_
_Z15set_debug_flagsPc
_Z16debug_parse_tagsPKcPx
_Z16dequeue_messagesP3JCR
_Z16dispatch_messageP3JCRixPc
_Z16init_console_msgPKc
_Z18set_db_engine_namePKc
_Z19is_message_type_setP3JCRi
_Z20handle_hangup_blowupP3JCRjy
_Z21generate_daemon_eventP3JCRPKc
_Z25free_daemon_message_queuev
_Z25register_message_callbackPFviPcE
_Z26setup_daemon_message_queuev
_Z4JmsgP3JCRixPKcz
_Z4MmsgPPcPKcz
_Z4MmsgR8POOL_MEMPKcz
_Z4MmsgRPcPKcz
_Z4QmsgP3JCRixPKcz
_Z5d_msgPKcixS0_z
_Z5e_msgPKciiiS0_z
_Z5j_msgPKciP3JCRixS0_z
_Z5m_msgPKciPPcS0_z
_Z5m_msgPKciRPcS0_z
_Z5p_msgPKciiS0_z
_Z5q_msgPKciP3JCRixS0_z
_Z5t_msgPKcixS0_z
_Z6vd_msgPKcixS0_Pc
_Z8init_msgP3JCRP4MSGSPFPcS0_PKcS3_iE
_Z8term_msgv
_Z9close_msgP3JCR
_Z9get_tracev
_Z9set_tracei
_ZN4MSGS15wait_not_in_useEv
_ZN4MSGS4lockEv
_ZN4MSGS6unlockEv
 
; mkpath.o
_Z13path_list_addP3JCRjPc
_Z14free_path_listP3JCR
_Z16path_list_lookupP3JCRPc
_Z8makepathP4ATTRPKcttjji
 
; openssl.o
_Z11init_cryptov
_Z14cleanup_cryptov
_Z19openssl_post_errorsiPKc
_Z19openssl_post_errorsP3JCRiPKc
 
; output.o
snprintf
_ZN12OutputWriter10get_outputE10OutputTypez
_ZN12OutputWriter10get_outputEPcPS0_10OutputType
_ZN12OutputWriter10get_outputEPPc10OutputTypez
_ZN12OutputWriter10start_listEPKcb
_ZN12OutputWriter11get_optionsEPc
_ZN12OutputWriter11start_groupEPKcb
_ZN12OutputWriter13parse_optionsEPKc
_ZN12OutputWriter7get_bufEb
_ZN12OutputWriter8end_listEb
_ZN12OutputWriter9end_groupEb
_ZN12OutputWriterD0Ev
_ZN12OutputWriterD1Ev
 
; plugins.o
_Z10new_pluginv
_Z12load_pluginsPvS_PKcS1_PFbP6PluginE
_Z14unload_pluginsv
_Z16dbg_print_pluginP6_iobuf
_Z19dbg_plugin_add_hookPFvP6PluginP6_iobufE
 
; print.o
_Z10__snprintfPcjPKcz
_Z10__vsprintfPcPKcS_
_Z11__vsnprintfPcjPKcS_
_Z4doprPcjPKcS_PFvS_PjjiE
_Z9__sprintfPcPKcz
 
; priv.o
_Z4dropPcS_b
 
; queue.o
_Z5qnextP7b_queueS0_
_Z7qdchainP7b_queue
_Z7qinsertP7b_queueS0_
_Z7qremoveP7b_queue
 
; rblist.o
_ZN6rblist11left_rotateEPv
_ZN6rblist12right_rotateEPv
_ZN6rblist3anyEPv
_ZN6rblist4nextEPv
_ZN6rblist5firstEv
_ZN6rblist6insertEPvPFiS0_S0_E
_ZN6rblist6removeEPv
_ZN6rblist6searchEPvPFiS0_S0_E
_ZN6rblist7destroyEv
 
; runscript.o
_Z11run_scriptsP3JCRP5alistPKc
_Z13new_runscriptv
_Z14copy_runscriptP9RUNSCRIPT
_Z14free_runscriptP9RUNSCRIPT
_Z15free_runscriptsP5alist
_ZN9RUNSCRIPT10set_targetEPKc
_ZN9RUNSCRIPT11set_commandEPKci
_ZN9RUNSCRIPT13reset_defaultEb
_ZN9RUNSCRIPT21set_job_code_callbackEPFPcP3JCRPKcS0_iE
_ZN9RUNSCRIPT3runEP3JCRPKc
_ZN9RUNSCRIPT5debugEv
_ZN9RUNSCRIPT8is_localEv
 
; rwlock.o
_Z11rwl_destroyP12s_rwlock_tag
_Z12is_rwl_validP12s_rwlock_tag
_Z12rwl_readlockP12s_rwlock_tag
_Z14rwl_readunlockP12s_rwlock_tag
_Z15rwl_readtrylockP12s_rwlock_tag
_Z15rwl_writelock_pP12s_rwlock_tagPKci
_Z15rwl_writeunlockP12s_rwlock_tag
_Z16rwl_writetrylockP12s_rwlock_tag
_Z8rwl_initP12s_rwlock_tagi
 
; scan.o
_Z10parse_argsPcPS_PiS0_S0_i
_Z11skip_spacesPPc
_Z14skip_nonspacesPPc
_Z15parse_args_onlyPcPS_PiS0_S0_i
_Z19strip_leading_spacePc
_Z19strip_trailing_junkPc
_Z22strip_trailing_newlinePc
_Z22strip_trailing_slashesPc
_Z23split_path_and_filenamePKcPPcPiS2_S3_
_Z7bsscanfPKcS0_z
_Z7fstrschPKcS0_
_Z8next_argPPc
_Z9next_namePPc
 
; sellist.o
_ZN7sellist10set_stringEPKcb
_ZN7sellist17get_expanded_listEv
_ZN7sellist4nextEv
 
; serial.o
_Z12serial_btimePPhx
_Z12serial_int16PPhs
_Z12serial_int32PPhi
_Z12serial_int64PPhx
_Z13serial_stringPPhPKc
_Z13serial_uint16PPht
_Z13serial_uint32PPhj
_Z13serial_uint64PPhy
_Z14serial_float64PPhd
_Z14unserial_btimePPh
_Z14unserial_int16PPh
_Z14unserial_int32PPh
_Z14unserial_int64PPh
_Z15unserial_stringPPhPci
_Z15unserial_uint16PPh
_Z15unserial_uint32PPh
_Z15unserial_uint64PPh
_Z16unserial_float64PPh
 
; sha1.o
_Z10SHA1UpdateP11SHA1ContextPKhj
_Z8SHA1InitP11SHA1Context
_Z9SHA1FinalP11SHA1ContextPh
 
; signal.o
 
; smartall.o
_Z10sm_reallocPKciPvj
_Z12actuallyfreePv
_Z12sm_check_rtnPKcib
_Z12sm_new_ownerPKciPc
_Z14actuallycallocjj
_Z14actuallymallocj
_Z15actuallyreallocPvj
_Z7bmemsetPvij
_Z7sm_dumpbb
_Z7sm_freePKciPv
_Z8sm_checkPKcib
_Z9sm_callocPKcijj
_Z9sm_mallocPKcij
_Z9sm_staticb
 
; tls.o
_Z14get_tls_enableP11TLS_Context
_Z15get_tls_requireP11TLS_Context
_Z15new_tls_contextPKcS0_S0_S0_PFiPciPKvES3_S0_b
_Z15tls_bsock_probeP5BSOCK
_Z15tls_bsock_readnP5BSOCKPci
_Z16free_tls_contextP11TLS_Context
_Z16tls_bsock_acceptP5BSOCK
_Z16tls_bsock_writenP5BSOCKPci
_Z17tls_bsock_connectP5BSOCK
_Z18new_tls_connectionP11TLS_Contexti
_Z18tls_bsock_shutdownP5BSOCK
_Z19free_tls_connectionP14TLS_Connection
_Z25tls_postconnect_verify_cnP3JCRP14TLS_ConnectionP5alist
_Z27tls_postconnect_verify_hostP3JCRP14TLS_ConnectionPKc
 
; tree.o
_Z11tree_relcwdPcP11s_tree_rootP11s_tree_node
_Z12tree_getpathP11s_tree_nodePci
_Z14make_tree_pathPcP11s_tree_root
_Z16insert_tree_nodePcS_iP11s_tree_rootP11s_tree_node
_Z16tree_remove_nodeP11s_tree_rootP11s_tree_node
_Z19tree_add_delta_partP11s_tree_rootP11s_tree_nodeji
_Z8new_treei
_Z8tree_cwdPcP11s_tree_rootP11s_tree_node
_Z9free_treeP11s_tree_root
 
; util.o
_Z11bash_spacesPc
_Z11bash_spacesR8POOL_MEM
_Z11encode_modetPc
_Z11encode_timexPc
_Z11is_buf_zeroPKci
_Z13unbash_spacesPc
_Z13unbash_spacesR8POOL_MEM
_Z14edit_job_codesP3JCRPcS1_PKcPFS1_S0_S3_S1_iE
_Z15is_power_of_twoy
_Z15job_type_to_stri
_Z16job_level_to_stri
_Z16make_session_keyPcS_i
_Z17job_status_to_strii
_Z18decode_session_keyPcS_S_i
_Z18do_shell_expansionPci
_Z18encode_session_keyPcS_S_i
_Z18jobstatus_to_asciiiPci
_Z19last_path_separatorPKc
_Z20volume_status_to_strPKc
_Z21set_working_directoryPc
_Z22jobstatus_to_ascii_guiiPci
_Z25action_on_purge_to_stringiR8POOL_MEM
_Z5lcasePc
_Z7hexdumpPKciPcib
_Z7is_nullPKv
_Z8bmemzeroPvj
_Z9asciidumpPKciPci
_Z9smartdumpPKciPciPb
 
; var.o
_Z10var_configP6var_st12var_config_tz
_Z10var_createPP6var_st
_Z10var_expandP6var_stPKciPPcPii
_Z10var_formatP6var_stPPciPKcz
_Z11var_destroyP6var_st
_Z11var_formatvP6var_stPPciPKcS1_
_Z12var_strerrorP6var_st8var_rc_t
_Z12var_unescapeP6var_stPKciPcii
 
; watchdog.o
watchdog_thread
_Z11is_watchdogv
_Z12new_watchdogv
_Z13stop_watchdogv
_Z14start_watchdogv
_Z17register_watchdogP12s_watchdog_t
_Z19unregister_watchdogP12s_watchdog_t
 
; win32filter.o
_ZN11Win32Filter9have_dataEPPcPxS2_
 
; winapi.o
_Z17InitWinAPIWrapperv
 
; worker.o
_ZN6worker11finish_workEv
_ZN6worker12release_lockEv
_ZN6worker13discard_queueEv
_ZN6worker13set_run_stateEv
_ZN6worker14set_quit_stateEv
_ZN6worker14set_wait_stateEv
_ZN6worker15pop_free_bufferEv
_ZN6worker16push_free_bufferEPv
_ZN6worker16wait_queue_emptyEv
_ZN6worker4initEi
_ZN6worker4stopEv
_ZN6worker4waitEv
_ZN6worker5queueEPv
_ZN6worker5startEPFPvS0_ES0_
_ZN6worker7dequeueEv
_ZN6worker7destroyEv
 
; workq.o
workq_server
_Z10workq_initP9workq_tagiPFPvS1_E
_Z12workq_removeP9workq_tagP13workq_ele_tag
_Z13workq_destroyP9workq_tag
_Z15workq_wait_idleP9workq_tag
_Z9workq_addP9workq_tagPvPP13workq_ele_tagi
 
console_command DATA
b_plugin_list DATA
plugin_bopen DATA
plugin_bclose DATA
plugin_bwrite DATA
plugin_bread DATA
plugin_blseek DATA
exepath DATA
version DATA
dist_name DATA
